; ModuleID = 'bench/clamav/original/7zCrc.c.ll'
source_filename = "bench/clamav/original/7zCrc.c.ll"
target datalayout = "e-m:e-p270:32:32-p271:32:32-p272:64:64-i64:64-i128:128-f80:128-n8:16:32:64-S128"
target triple = "x86_64-pc-linux-gnu"

@g_CrcTable = local_unnamed_addr constant [256 x i32] [i32 0, i32 1996959894, i32 -301047508, i32 -1727442502, i32 124634137, i32 1886057615, i32 -379345611, i32 -1637575261, i32 249268274, i32 2044508324, i32 -522852066, i32 -1747789432, i32 162941995, i32 2125561021, i32 -407360249, i32 -1866523247, i32 498536548, i32 1789927666, i32 -205950648, i32 -2067906082, i32 450548861, i32 1843258603, i32 -187386543, i32 -2083289657, i32 325883990, i32 1684777152, i32 -43845254, i32 -1973040660, i32 335633487, i32 1661365465, i32 -99664541, i32 -1928851979, i32 997073096, i32 1281953886, i32 -715111964, i32 -1570279054, i32 1006888145, i32 1258607687, i32 -770865667, i32 -1526024853, i32 901097722, i32 1119000684, i32 -608450090, i32 -1396901568, i32 853044451, i32 1172266101, i32 -589951537, i32 -1412350631, i32 651767980, i32 1373503546, i32 -925412992, i32 -1076862698, i32 565507253, i32 1454621731, i32 -809855591, i32 -1195530993, i32 671266974, i32 1594198024, i32 -972236366, i32 -1324619484, i32 795835527, i32 1483230225, i32 -1050600021, i32 -1234817731, i32 1994146192, i32 31158534, i32 -1731059524, i32 -271249366, i32 1907459465, i32 112637215, i32 -1614814043, i32 -390540237, i32 2013776290, i32 251722036, i32 -1777751922, i32 -519137256, i32 2137656763, i32 141376813, i32 -1855689577, i32 -429695999, i32 1802195444, i32 476864866, i32 -2056965928, i32 -228458418, i32 1812370925, i32 453092731, i32 -2113342271, i32 -183516073, i32 1706088902, i32 314042704, i32 -1950435094, i32 -54949764, i32 1658658271, i32 366619977, i32 -1932296973, i32 -69972891, i32 1303535960, i32 984961486, i32 -1547960204, i32 -725929758, i32 1256170817, i32 1037604311, i32 -1529756563, i32 -740887301, i32 1131014506, i32 879679996, i32 -1385723834, i32 -631195440, i32 1141124467, i32 855842277, i32 -1442165665, i32 -586318647, i32 1342533948, i32 654459306, i32 -1106571248, i32 -921952122, i32 1466479909, i32 544179635, i32 -1184443383, i32 -832445281, i32 1591671054, i32 702138776, i32 -1328506846, i32 -942167884, i32 1504918807, i32 783551873, i32 -1212326853, i32 -1061524307, i32 -306674912, i32 -1698712650, i32 62317068, i32 1957810842, i32 -355121351, i32 -1647151185, i32 81470997, i32 1943803523, i32 -480048366, i32 -1805370492, i32 225274430, i32 2053790376, i32 -468791541, i32 -1828061283, i32 167816743, i32 2097651377, i32 -267414716, i32 -2029476910, i32 503444072, i32 1762050814, i32 -144550051, i32 -2140837941, i32 426522225, i32 1852507879, i32 -19653770, i32 -1982649376, i32 282753626, i32 1742555852, i32 -105259153, i32 -1900089351, i32 397917763, i32 1622183637, i32 -690576408, i32 -1580100738, i32 953729732, i32 1340076626, i32 -776247311, i32 -1497606297, i32 1068828381, i32 1219638859, i32 -670225446, i32 -1358292148, i32 906185462, i32 1090812512, i32 -547295293, i32 -1469587627, i32 829329135, i32 1181335161, i32 -882789492, i32 -1134132454, i32 628085408, i32 1382605366, i32 -871598187, i32 -1156888829, i32 570562233, i32 1426400815, i32 -977650754, i32 -1296233688, i32 733239954, i32 1555261956, i32 -1026031705, i32 -1244606671, i32 752459403, i32 1541320221, i32 -1687895376, i32 -328994266, i32 1969922972, i32 40735498, i32 -1677130071, i32 -351390145, i32 1913087877, i32 83908371, i32 -1782625662, i32 -491226604, i32 2075208622, i32 213261112, i32 -1831694693, i32 -438977011, i32 2094854071, i32 198958881, i32 -2032938284, i32 -237706686, i32 1759359992, i32 534414190, i32 -2118248755, i32 -155638181, i32 1873836001, i32 414664567, i32 -2012718362, i32 -15766928, i32 1711684554, i32 285281116, i32 -1889165569, i32 -127750551, i32 1634467795, i32 376229701, i32 -1609899400, i32 -686959890, i32 1308918612, i32 956543938, i32 -1486412191, i32 -799009033, i32 1231636301, i32 1047427035, i32 -1362007478, i32 -640263460, i32 1088359270, i32 936918000, i32 -1447252397, i32 -558129467, i32 1202900863, i32 817233897, i32 -1111625188, i32 -893730166, i32 1404277552, i32 615818150, i32 -1160759803, i32 -841546093, i32 1423857449, i32 601450431, i32 -1285129682, i32 -1000256840, i32 1567103746, i32 711928724, i32 -1274298825, i32 -1022587231, i32 1510334235, i32 755167117], align 16

; Function Attrs: nofree norecurse nosync nounwind memory(read, inaccessiblemem: none) uwtable
define i32 @CrcUpdate(i32 noundef %0, ptr nocapture noundef readonly %1, i64 noundef %2) local_unnamed_addr #0 {
  %.not9 = icmp eq i64 %2, 0
  br i1 %.not9, label %._crit_edge, label %.lr.ph

.lr.ph:                                           ; preds = %3, %.lr.ph
  %.012 = phi ptr [ %11, %.lr.ph ], [ %1, %3 ]
  %.0711 = phi i64 [ %10, %.lr.ph ], [ %2, %3 ]
  %.0810 = phi i32 [ %9, %.lr.ph ], [ %0, %3 ]
  %4 = load i8, ptr %.012, align 1
  %.08.tr = trunc i32 %.0810 to i8
  %.narrow = xor i8 %4, %.08.tr
  %5 = zext i8 %.narrow to i64
  %6 = getelementptr inbounds [256 x i32], ptr @g_CrcTable, i64 0, i64 %5
  %7 = load i32, ptr %6, align 4
  %8 = lshr i32 %.0810, 8
  %9 = xor i32 %7, %8
  %10 = add i64 %.0711, -1
  %11 = getelementptr inbounds i8, ptr %.012, i64 1
  %.not = icmp eq i64 %10, 0
  br i1 %.not, label %._crit_edge, label %.lr.ph

._crit_edge:                                      ; preds = %.lr.ph, %3
  %.08.lcssa = phi i32 [ %0, %3 ], [ %9, %.lr.ph ]
  ret i32 %.08.lcssa
}

; Function Attrs: nofree norecurse nosync nounwind memory(read, inaccessiblemem: none) uwtable
define i32 @CrcCalc(ptr nocapture noundef readonly %0, i64 noundef %1) local_unnamed_addr #0 {
  %.not9.i = icmp eq i64 %1, 0
  br i1 %.not9.i, label %CrcUpdate.exit, label %.lr.ph.i

.lr.ph.i:                                         ; preds = %2, %.lr.ph.i
  %.012.i = phi ptr [ %10, %.lr.ph.i ], [ %0, %2 ]
  %.0711.i = phi i64 [ %9, %.lr.ph.i ], [ %1, %2 ]
  %.0810.i = phi i32 [ %8, %.lr.ph.i ], [ -1, %2 ]
  %3 = load i8, ptr %.012.i, align 1
  %.08.tr.i = trunc i32 %.0810.i to i8
  %.narrow.i = xor i8 %3, %.08.tr.i
  %4 = zext i8 %.narrow.i to i64
  %5 = getelementptr inbounds [256 x i32], ptr @g_CrcTable, i64 0, i64 %4
  %6 = load i32, ptr %5, align 4
  %7 = lshr i32 %.0810.i, 8
  %8 = xor i32 %6, %7
  %9 = add i64 %.0711.i, -1
  %10 = getelementptr inbounds i8, ptr %.012.i, i64 1
  %.not.i = icmp eq i64 %9, 0
  br i1 %.not.i, label %CrcUpdate.exit.loopexit, label %.lr.ph.i

CrcUpdate.exit.loopexit:                          ; preds = %.lr.ph.i
  %11 = xor i32 %8, -1
  br label %CrcUpdate.exit

CrcUpdate.exit:                                   ; preds = %CrcUpdate.exit.loopexit, %2
  %.08.lcssa.i = phi i32 [ 0, %2 ], [ %11, %CrcUpdate.exit.loopexit ]
  ret i32 %.08.lcssa.i
}


!llvm.module.flags = !{!0, !1, !2, !3}

!0 = !{i32 1, !"wchar_size", i32 4}
!1 = !{i32 8, !"PIC Level", i32 2}
!2 = !{i32 7, !"uwtable", i32 2}
!3 = !{i32 7, !"frame-pointer", i32 2}
